Certificate:
    Data:
        Version: 3 (0x2)
        Serial Number: 16 (0x10)
        Signature Algorithm: ecdsa-with-SHA384
        Issuer: C=DE, ST=NRW, L=Bochum, O=RUB, OU=NDS
        Validity
            Not Before: Jul 25 10:11:54 2024 GMT
            Not After : Jul 25 10:11:54 2025 GMT
        Subject: O=TLS-Attacker, CN=OCSP Responder
        Subject Public Key Info:
            Public Key Algorithm: id-ecPublicKey
                Public-Key: (384 bit)
                pub:
                    04:2a:4b:b1:2a:80:d1:86:3c:af:32:9b:4c:c9:f4:
                    b7:8f:fc:13:de:cc:a2:fb:30:b5:01:c7:00:2b:be:
                    be:d1:d5:a0:ea:56:97:93:5a:55:82:fa:45:c3:d6:
                    18:78:60:5a:8d:fc:ee:ef:81:c4:30:95:c4:77:03:
                    40:0f:20:86:a1:52:b0:0b:74:f6:85:5b:2a:9f:08:
                    ef:c7:e0:3b:d1:6c:7f:5f:67:03:95:03:d3:f6:0c:
                    4a:56:d7:f3:f6:a1:a9
                ASN1 OID: secp384r1
                NIST CURVE: P-384
        X509v3 extensions:
            X509v3 Basic Constraints: 
                CA:FALSE
            X509v3 Subject Key Identifier: 
                63:C4:2A:68:6B:24:9C:08:77:F5:5B:1B:36:00:8D:82:C7:3A:E4:38
            X509v3 Authority Key Identifier: 
                CF:7C:D9:86:35:8B:70:25:E4:5C:91:0A:25:8A:C8:D7:B3:7D:81:C1
    Signature Algorithm: ecdsa-with-SHA384
    Signature Value:
        30:46:02:21:00:da:39:03:80:a8:81:f8:4c:7c:d7:06:43:cd:
        17:0d:c3:eb:f5:a5:01:0b:ee:ee:e3:c8:74:b0:0b:c5:2a:ef:
        ad:02:21:00:bb:df:4f:e1:3b:eb:01:3e:8a:1a:fb:5e:58:03:
        b2:58:f3:a7:2f:0f:2d:d7:f3:57:fb:1d:06:60:fb:93:8f:ae
-----BEGIN CERTIFICATE-----
MIIB0jCCAXegAwIBAgIBEDAKBggqhkjOPQQDAzBIMQswCQYDVQQGEwJERTEMMAoG
A1UECAwDTlJXMQ8wDQYDVQQHDAZCb2NodW0xDDAKBgNVBAoMA1JVQjEMMAoGA1UE
CwwDTkRTMB4XDTI0MDcyNTEwMTE1NFoXDTI1MDcyNTEwMTE1NFowMDEVMBMGA1UE
CgwMVExTLUF0dGFja2VyMRcwFQYDVQQDDA5PQ1NQIFJlc3BvbmRlcjB2MBAGByqG
SM49AgEGBSuBBAAiA2IABCpLsSqA0YY8rzKbTMn0t4/8E97MovswtQHHACu+vtHV
oOpWl5NaVYL6RcPWGHhgWo387u+BxDCVxHcDQA8ghqFSsAt09oVbKp8I78fgO9Fs
f19nA5UD0/YMSlbX8/ahqaNNMEswCQYDVR0TBAIwADAdBgNVHQ4EFgQUY8QqaGsk
nAh39VsbNgCNgsc65DgwHwYDVR0jBBgwFoAUz3zZhjWLcCXkXJEKJYrI17N9gcEw
CgYIKoZIzj0EAwMDSQAwRgIhANo5A4CogfhMfNcGQ80XDcPr9aUBC+7u48h0sAvF
Ku+tAiEAu99P4TvrAT6KGvteWAOyWPOnLw8t1/NX+x0GYPuTj64=
-----END CERTIFICATE-----
